target datalayout = "e-m:e-p270:32:32-p271:32:32-p272:64:64-i64:64-i128:128-f80:128-n8:16:32:64-S128"
target triple = "x86_64-pc-linux-gnu"

%struct.llama_batch = type { i32, ptr, ptr, ptr, ptr, ptr, ptr }
%"class.__gnu_cxx::__normal_iterator" = type { ptr }
%class.anon = type { ptr }
%"struct.__gnu_cxx::__ops::_Val_comp_iter" = type { %class.anon }

; Function Attrs: inlinehint mustprogress nounwind uwtable
define internal noundef zeroext i1 @"_ZZN12llama_sbatch10from_batchERK11llama_batchmbbENK3$_0clEmm"(ptr noundef nonnull align 8 dereferenceable(8) %0, i64 noundef %1, i64 noundef %2) #11 align 2 {
  %4 = alloca i1, align 1
  %5 = alloca ptr, align 8
  %6 = alloca i64, align 8
  %7 = alloca i64, align 8
  %8 = alloca i32, align 4
  %9 = alloca i32, align 4
  %10 = alloca i32, align 4
  %11 = alloca i32, align 4
  %12 = alloca i32, align 4
  %13 = alloca i32, align 4
  store ptr %0, ptr %5, align 8, !tbaa !184
  store i64 %1, ptr %6, align 8, !tbaa !8
  store i64 %2, ptr %7, align 8, !tbaa !8
  %14 = load ptr, ptr %5, align 8
  call void @llvm.lifetime.start.p0(i64 4, ptr %8) #16
  %15 = getelementptr inbounds nuw %class.anon, ptr %14, i32 0, i32 0
  %16 = load ptr, ptr %15, align 8, !tbaa !237
  %17 = getelementptr inbounds nuw %struct.llama_batch, ptr %16, i32 0, i32 4
  %18 = load ptr, ptr %17, align 8, !tbaa !96
  %19 = icmp ne ptr %18, null
  br i1 %19, label %20, label %28

20:                                               ; preds = %3
  %21 = getelementptr inbounds nuw %class.anon, ptr %14, i32 0, i32 0
  %22 = load ptr, ptr %21, align 8, !tbaa !237
  %23 = getelementptr inbounds nuw %struct.llama_batch, ptr %22, i32 0, i32 4
  %24 = load ptr, ptr %23, align 8, !tbaa !96
  %25 = load i64, ptr %6, align 8, !tbaa !8
  %26 = getelementptr inbounds nuw i32, ptr %24, i64 %25
  %27 = load i32, ptr %26, align 4, !tbaa !88
  br label %29

28:                                               ; preds = %3
  br label %29

29:                                               ; preds = %28, %20
  %30 = phi i32 [ %27, %20 ], [ 1, %28 ]
  store i32 %30, ptr %8, align 4, !tbaa !88
  call void @llvm.lifetime.start.p0(i64 4, ptr %9) #16
  %31 = getelementptr inbounds nuw %class.anon, ptr %14, i32 0, i32 0
  %32 = load ptr, ptr %31, align 8, !tbaa !237
  %33 = getelementptr inbounds nuw %struct.llama_batch, ptr %32, i32 0, i32 4
  %34 = load ptr, ptr %33, align 8, !tbaa !96
  %35 = icmp ne ptr %34, null
  br i1 %35, label %36, label %44

36:                                               ; preds = %29
  %37 = getelementptr inbounds nuw %class.anon, ptr %14, i32 0, i32 0
  %38 = load ptr, ptr %37, align 8, !tbaa !237
  %39 = getelementptr inbounds nuw %struct.llama_batch, ptr %38, i32 0, i32 4
  %40 = load ptr, ptr %39, align 8, !tbaa !96
  %41 = load i64, ptr %7, align 8, !tbaa !8
  %42 = getelementptr inbounds nuw i32, ptr %40, i64 %41
  %43 = load i32, ptr %42, align 4, !tbaa !88
  br label %45

44:                                               ; preds = %29
  br label %45

45:                                               ; preds = %44, %36
  %46 = phi i32 [ %43, %36 ], [ 1, %44 ]
  store i32 %46, ptr %9, align 4, !tbaa !88
  %47 = load i32, ptr %8, align 4, !tbaa !88
  %48 = load i32, ptr %9, align 4, !tbaa !88
  %49 = icmp eq i32 %47, %48
  br i1 %49, label %50, label %128

50:                                               ; preds = %45
  %51 = getelementptr inbounds nuw %class.anon, ptr %14, i32 0, i32 0
  %52 = load ptr, ptr %51, align 8, !tbaa !237
  %53 = getelementptr inbounds nuw %struct.llama_batch, ptr %52, i32 0, i32 5
  %54 = load ptr, ptr %53, align 8, !tbaa !98
  %55 = icmp ne ptr %54, null
  br i1 %55, label %56, label %102

56:                                               ; preds = %50
  call void @llvm.lifetime.start.p0(i64 4, ptr %10) #16
  store i32 0, ptr %10, align 4, !tbaa !88
  br label %57

57:                                               ; preds = %96, %56
  %58 = load i32, ptr %10, align 4, !tbaa !88
  %59 = load i32, ptr %8, align 4, !tbaa !88
  %60 = icmp slt i32 %58, %59
  br i1 %60, label %62, label %61

61:                                               ; preds = %57
  store i32 2, ptr %11, align 4
  br label %99

62:                                               ; preds = %57
  call void @llvm.lifetime.start.p0(i64 4, ptr %12) #16
  %63 = getelementptr inbounds nuw %class.anon, ptr %14, i32 0, i32 0
  %64 = load ptr, ptr %63, align 8, !tbaa !237
  %65 = getelementptr inbounds nuw %struct.llama_batch, ptr %64, i32 0, i32 5
  %66 = load ptr, ptr %65, align 8, !tbaa !98
  %67 = load i64, ptr %6, align 8, !tbaa !8
  %68 = getelementptr inbounds nuw ptr, ptr %66, i64 %67
  %69 = load ptr, ptr %68, align 8, !tbaa !95
  %70 = load i32, ptr %10, align 4, !tbaa !88
  %71 = sext i32 %70 to i64
  %72 = getelementptr inbounds i32, ptr %69, i64 %71
  %73 = load i32, ptr %72, align 4, !tbaa !88
  store i32 %73, ptr %12, align 4, !tbaa !88
  call void @llvm.lifetime.start.p0(i64 4, ptr %13) #16
  %74 = getelementptr inbounds nuw %class.anon, ptr %14, i32 0, i32 0
  %75 = load ptr, ptr %74, align 8, !tbaa !237
  %76 = getelementptr inbounds nuw %struct.llama_batch, ptr %75, i32 0, i32 5
  %77 = load ptr, ptr %76, align 8, !tbaa !98
  %78 = load i64, ptr %7, align 8, !tbaa !8
  %79 = getelementptr inbounds nuw ptr, ptr %77, i64 %78
  %80 = load ptr, ptr %79, align 8, !tbaa !95
  %81 = load i32, ptr %10, align 4, !tbaa !88
  %82 = sext i32 %81 to i64
  %83 = getelementptr inbounds i32, ptr %80, i64 %82
  %84 = load i32, ptr %83, align 4, !tbaa !88
  store i32 %84, ptr %13, align 4, !tbaa !88
  %85 = load i32, ptr %12, align 4, !tbaa !88
  %86 = load i32, ptr %13, align 4, !tbaa !88
  %87 = icmp ne i32 %85, %86
  br i1 %87, label %88, label %92

88:                                               ; preds = %62
  %89 = load i32, ptr %12, align 4, !tbaa !88
  %90 = load i32, ptr %13, align 4, !tbaa !88
  %91 = icmp slt i32 %89, %90
  store i1 %91, ptr %4, align 1
  store i32 1, ptr %11, align 4
  br label %93

92:                                               ; preds = %62
  store i32 0, ptr %11, align 4
  br label %93

93:                                               ; preds = %92, %88
  call void @llvm.lifetime.end.p0(i64 4, ptr %13) #16
  call void @llvm.lifetime.end.p0(i64 4, ptr %12) #16
  %94 = load i32, ptr %11, align 4
  switch i32 %94, label %99 [
    i32 0, label %95
  ]

95:                                               ; preds = %93
  br label %96

96:                                               ; preds = %95
  %97 = load i32, ptr %10, align 4, !tbaa !88
  %98 = add nsw i32 %97, 1
  store i32 %98, ptr %10, align 4, !tbaa !88
  br label %57, !llvm.loop !239

99:                                               ; preds = %93, %61
  call void @llvm.lifetime.end.p0(i64 4, ptr %10) #16
  %100 = load i32, ptr %11, align 4
  switch i32 %100, label %132 [
    i32 2, label %101
  ]

101:                                              ; preds = %99
  br label %102

102:                                              ; preds = %101, %50
  %103 = getelementptr inbounds nuw %class.anon, ptr %14, i32 0, i32 0
  %104 = load ptr, ptr %103, align 8, !tbaa !237
  %105 = getelementptr inbounds nuw %struct.llama_batch, ptr %104, i32 0, i32 3
  %106 = load ptr, ptr %105, align 8, !tbaa !92
  %107 = icmp ne ptr %106, null
  br i1 %107, label %108, label %124

108:                                              ; preds = %102
  %109 = getelementptr inbounds nuw %class.anon, ptr %14, i32 0, i32 0
  %110 = load ptr, ptr %109, align 8, !tbaa !237
  %111 = getelementptr inbounds nuw %struct.llama_batch, ptr %110, i32 0, i32 3
  %112 = load ptr, ptr %111, align 8, !tbaa !92
  %113 = load i64, ptr %6, align 8, !tbaa !8
  %114 = getelementptr inbounds nuw i32, ptr %112, i64 %113
  %115 = load i32, ptr %114, align 4, !tbaa !88
  %116 = getelementptr inbounds nuw %class.anon, ptr %14, i32 0, i32 0
  %117 = load ptr, ptr %116, align 8, !tbaa !237
  %118 = getelementptr inbounds nuw %struct.llama_batch, ptr %117, i32 0, i32 3
  %119 = load ptr, ptr %118, align 8, !tbaa !92
  %120 = load i64, ptr %7, align 8, !tbaa !8
  %121 = getelementptr inbounds nuw i32, ptr %119, i64 %120
  %122 = load i32, ptr %121, align 4, !tbaa !88
  %123 = icmp slt i32 %115, %122
  store i1 %123, ptr %4, align 1
  store i32 1, ptr %11, align 4
  br label %132

124:                                              ; preds = %102
  %125 = load i64, ptr %6, align 8, !tbaa !8
  %126 = load i64, ptr %7, align 8, !tbaa !8
  %127 = icmp ult i64 %125, %126
  store i1 %127, ptr %4, align 1
  store i32 1, ptr %11, align 4
  br label %132

128:                                              ; preds = %45
  %129 = load i32, ptr %8, align 4, !tbaa !88
  %130 = load i32, ptr %9, align 4, !tbaa !88
  %131 = icmp sgt i32 %129, %130
  store i1 %131, ptr %4, align 1
  store i32 1, ptr %11, align 4
  br label %132

132:                                              ; preds = %128, %124, %108, %99
  call void @llvm.lifetime.end.p0(i64 4, ptr %9) #16
  call void @llvm.lifetime.end.p0(i64 4, ptr %8) #16
  %133 = load i1, ptr %4, align 1
  ret i1 %133
}

; Function Attrs: mustprogress nounwind uwtable
define internal noundef zeroext i1 @"_ZN9__gnu_cxx5__ops14_Val_comp_iterIZN12llama_sbatch10from_batchERK11llama_batchmbbE3$_0EclImNS_17__normal_iteratorIPmSt6vectorImSaImEEEEEEbRT_T0_"(ptr noundef nonnull align 8 dereferenceable(8) %0, ptr noundef nonnull align 8 dereferenceable(8) %1, ptr %2) #2 align 2 {
  %4 = alloca %"class.__gnu_cxx::__normal_iterator", align 8
  %5 = alloca ptr, align 8
  %6 = alloca ptr, align 8
  %7 = getelementptr inbounds nuw %"class.__gnu_cxx::__normal_iterator", ptr %4, i32 0, i32 0
  store ptr %2, ptr %7, align 8
  store ptr %0, ptr %5, align 8, !tbaa !246
  store ptr %1, ptr %6, align 8, !tbaa !110
  %8 = load ptr, ptr %5, align 8
  %9 = getelementptr inbounds nuw %"struct.__gnu_cxx::__ops::_Val_comp_iter", ptr %8, i32 0, i32 0
  %10 = load ptr, ptr %6, align 8, !tbaa !110
  %11 = load i64, ptr %10, align 8, !tbaa !8
  %12 = call noundef nonnull align 8 dereferenceable(8) ptr @_ZNK9__gnu_cxx17__normal_iteratorIPmSt6vectorImSaImEEEdeEv(ptr noundef nonnull align 8 dereferenceable(8) %4) #16
  %13 = load i64, ptr %12, align 8, !tbaa !8
  %14 = call noundef zeroext i1 @"_ZZN12llama_sbatch10from_batchERK11llama_batchmbbENK3$_0clEmm"(ptr noundef nonnull align 8 dereferenceable(8) %9, i64 noundef %11, i64 noundef %13)
  ret i1 %14
}

; Function Attrs: mustprogress nounwind uwtable
define linkonce_odr noundef nonnull align 8 dereferenceable(8) ptr @_ZN9__gnu_cxx17__normal_iteratorIPmSt6vectorImSaImEEEmmEv(ptr noundef nonnull align 8 dereferenceable(8) %0) #2 comdat align 2 {
  %2 = alloca ptr, align 8
  store ptr %0, ptr %2, align 8, !tbaa !208
  %3 = load ptr, ptr %2, align 8
  %4 = getelementptr inbounds nuw %"class.__gnu_cxx::__normal_iterator", ptr %3, i32 0, i32 0
  %5 = load ptr, ptr %4, align 8, !tbaa !212
  %6 = getelementptr inbounds i64, ptr %5, i32 -1
  store ptr %6, ptr %4, align 8, !tbaa !212
  ret ptr %3
}

; Function Attrs: mustprogress nounwind uwtable
define linkonce_odr noundef nonnull align 8 dereferenceable(8) ptr @_ZNK9__gnu_cxx17__normal_iteratorIPmSt6vectorImSaImEEEdeEv(ptr noundef nonnull align 8 dereferenceable(8) %0) #2 comdat align 2 {
  %2 = alloca ptr, align 8
  store ptr %0, ptr %2, align 8, !tbaa !208
  %3 = load ptr, ptr %2, align 8
  %4 = getelementptr inbounds nuw %"class.__gnu_cxx::__normal_iterator", ptr %3, i32 0, i32 0
  %5 = load ptr, ptr %4, align 8, !tbaa !212
  ret ptr %5
}

; Function Attrs: mustprogress uwtable
define internal void @"_ZSt25__unguarded_linear_insertIN9__gnu_cxx17__normal_iteratorIPmSt6vectorImSaImEEEENS0_5__ops14_Val_comp_iterIZN12llama_sbatch10from_batchERK11llama_batchmbbE3$_0EEEvT_T0_"(ptr %0, ptr %1) #0 {
  %3 = alloca %"class.__gnu_cxx::__normal_iterator", align 8
  %4 = alloca %"struct.__gnu_cxx::__ops::_Val_comp_iter", align 8
  %5 = alloca i64, align 8
  %6 = alloca %"class.__gnu_cxx::__normal_iterator", align 8
  %7 = alloca %"class.__gnu_cxx::__normal_iterator", align 8
  %8 = getelementptr inbounds nuw %"class.__gnu_cxx::__normal_iterator", ptr %3, i32 0, i32 0
  store ptr %0, ptr %8, align 8
  %9 = getelementptr inbounds nuw %"struct.__gnu_cxx::__ops::_Val_comp_iter", ptr %4, i32 0, i32 0
  %10 = getelementptr inbounds nuw %class.anon, ptr %9, i32 0, i32 0
  store ptr %1, ptr %10, align 8
  call void @llvm.lifetime.start.p0(i64 8, ptr %5) #16
  %11 = call noundef nonnull align 8 dereferenceable(8) ptr @_ZNK9__gnu_cxx17__normal_iteratorIPmSt6vectorImSaImEEEdeEv(ptr noundef nonnull align 8 dereferenceable(8) %3) #16
  %12 = load i64, ptr %11, align 8, !tbaa !8
  store i64 %12, ptr %5, align 8, !tbaa !8
  call void @llvm.lifetime.start.p0(i64 8, ptr %6) #16
  call void @llvm.memcpy.p0.p0.i64(ptr align 8 %6, ptr align 8 %3, i64 8, i1 false), !tbaa.struct !119
  %13 = call noundef nonnull align 8 dereferenceable(8) ptr @_ZN9__gnu_cxx17__normal_iteratorIPmSt6vectorImSaImEEEmmEv(ptr noundef nonnull align 8 dereferenceable(8) %6) #16
  br label %14

14:                                               ; preds = %18, %2
  call void @llvm.memcpy.p0.p0.i64(ptr align 8 %7, ptr align 8 %6, i64 8, i1 false), !tbaa.struct !119
  %15 = getelementptr inbounds nuw %"class.__gnu_cxx::__normal_iterator", ptr %7, i32 0, i32 0
  %16 = load ptr, ptr %15, align 8
  %17 = call noundef zeroext i1 @"_ZN9__gnu_cxx5__ops14_Val_comp_iterIZN12llama_sbatch10from_batchERK11llama_batchmbbE3$_0EclImNS_17__normal_iteratorIPmSt6vectorImSaImEEEEEEbRT_T0_"(ptr noundef nonnull align 8 dereferenceable(8) %4, ptr noundef nonnull align 8 dereferenceable(8) %5, ptr %16)
  br i1 %17, label %18, label %23

18:                                               ; preds = %14
  %19 = call noundef nonnull align 8 dereferenceable(8) ptr @_ZNK9__gnu_cxx17__normal_iteratorIPmSt6vectorImSaImEEEdeEv(ptr noundef nonnull align 8 dereferenceable(8) %6) #16
  %20 = load i64, ptr %19, align 8, !tbaa !8
  %21 = call noundef nonnull align 8 dereferenceable(8) ptr @_ZNK9__gnu_cxx17__normal_iteratorIPmSt6vectorImSaImEEEdeEv(ptr noundef nonnull align 8 dereferenceable(8) %3) #16
  store i64 %20, ptr %21, align 8, !tbaa !8
  call void @llvm.memcpy.p0.p0.i64(ptr align 8 %3, ptr align 8 %6, i64 8, i1 false), !tbaa.struct !119
  %22 = call noundef nonnull align 8 dereferenceable(8) ptr @_ZN9__gnu_cxx17__normal_iteratorIPmSt6vectorImSaImEEEmmEv(ptr noundef nonnull align 8 dereferenceable(8) %6) #16
  br label %14, !llvm.loop !245

23:                                               ; preds = %14
  %24 = load i64, ptr %5, align 8, !tbaa !8
  %25 = call noundef nonnull align 8 dereferenceable(8) ptr @_ZNK9__gnu_cxx17__normal_iteratorIPmSt6vectorImSaImEEEdeEv(ptr noundef nonnull align 8 dereferenceable(8) %3) #16
  store i64 %24, ptr %25, align 8, !tbaa !8
  call void @llvm.lifetime.end.p0(i64 8, ptr %6) #16
  call void @llvm.lifetime.end.p0(i64 8, ptr %5) #16
  ret void
}