; Function Attrs: mustprogress nofree norecurse nosync nounwind memory(read, argmem: readwrite, inaccessiblemem: none) uwtable
define internal fastcc void @"_ZSt25__unguarded_linear_insertIN9__gnu_cxx17__normal_iteratorIPmSt6vectorImSaImEEEENS0_5__ops14_Val_comp_iterIZN12llama_sbatch10from_batchERK11llama_batchmbbE3$_0EEEvT_T0_"(ptr captures(none) %0, ptr readonly captures(none) %1) unnamed_addr #13 {
  %3 = load i64, ptr %0, align 8, !tbaa !77
  %4 = getelementptr inbounds nuw i8, ptr %1, i64 32
  %5 = load ptr, ptr %4, align 8, !tbaa !85
  %.not.i.i = icmp eq ptr %5, null
  %6 = getelementptr inbounds nuw i8, ptr %1, i64 40
  %7 = getelementptr inbounds nuw i8, ptr %1, i64 24
  br i1 %.not.i.i, label %.split.us, label %.split

.split.us:                                        ; preds = %2
  %8 = load ptr, ptr %6, align 8, !tbaa !89
  %.not37.i.i.us.not = icmp eq ptr %8, null
  br i1 %.not37.i.i.us.not, label %.split.us.split, label %.split.us.split.us

.split.us.split.us:                               ; preds = %.split.us
  %9 = getelementptr inbounds nuw ptr, ptr %8, i64 %3
  %10 = load ptr, ptr %9, align 8, !tbaa !87
  %.pre = load i32, ptr %10, align 4, !tbaa !78
  br label %.thread1.i.i.us.us

.thread1.i.i.us.us:                               ; preds = %25, %.split.us.split.us
  %.sroa.06.0.us.us = phi ptr [ %0, %.split.us.split.us ], [ %.sroa.0.0.us.us, %25 ]
  %.sroa.0.0.us.us = getelementptr inbounds i8, ptr %.sroa.06.0.us.us, i64 -8
  %11 = load i64, ptr %.sroa.0.0.us.us, align 8, !tbaa !77
  %12 = getelementptr inbounds nuw ptr, ptr %8, i64 %11
  %13 = load ptr, ptr %12, align 8, !tbaa !87
  %14 = load i32, ptr %13, align 4, !tbaa !78
  %.not38.i.i.us.us = icmp eq i32 %.pre, %14
  br i1 %.not38.i.i.us.us, label %.loopexit.i.i.loopexit.us.us, label %"_ZN9__gnu_cxx5__ops14_Val_comp_iterIZN12llama_sbatch10from_batchERK11llama_batchmbbE3$_0EclImNS_17__normal_iteratorIPmSt6vectorImSaImEEEEEEbRT_T0_.exit.us.us"

"_ZN9__gnu_cxx5__ops14_Val_comp_iterIZN12llama_sbatch10from_batchERK11llama_batchmbbE3$_0EclImNS_17__normal_iteratorIPmSt6vectorImSaImEEEEEEbRT_T0_.exit.us.us": ; preds = %.thread1.i.i.us.us
  %15 = icmp slt i32 %.pre, %14
  br i1 %15, label %25, label %.split13.us

.loopexit.i.i.loopexit.us.us:                     ; preds = %.thread1.i.i.us.us
  %16 = load ptr, ptr %7, align 8, !tbaa !83
  %.not40.i.i.us.us = icmp eq ptr %16, null
  br i1 %.not40.i.i.us.us, label %23, label %17

17:                                               ; preds = %.loopexit.i.i.loopexit.us.us
  %18 = getelementptr inbounds nuw i32, ptr %16, i64 %3
  %19 = load i32, ptr %18, align 4, !tbaa !78
  %20 = getelementptr inbounds nuw i32, ptr %16, i64 %11
  %21 = load i32, ptr %20, align 4, !tbaa !78
  %22 = icmp slt i32 %19, %21
  br i1 %22, label %25, label %.split13.us

23:                                               ; preds = %.loopexit.i.i.loopexit.us.us
  %24 = icmp ult i64 %3, %11
  br i1 %24, label %25, label %.split13.us

25:                                               ; preds = %23, %17, %"_ZN9__gnu_cxx5__ops14_Val_comp_iterIZN12llama_sbatch10from_batchERK11llama_batchmbbE3$_0EclImNS_17__normal_iteratorIPmSt6vectorImSaImEEEEEEbRT_T0_.exit.us.us"
  store i64 %11, ptr %.sroa.06.0.us.us, align 8, !tbaa !77
  br label %.thread1.i.i.us.us, !llvm.loop !146

.split.us.split:                                  ; preds = %.split.us
  %26 = load ptr, ptr %7, align 8, !tbaa !83
  %.not40.i.i.us = icmp eq ptr %26, null
  br i1 %.not40.i.i.us, label %.split.us.split.split.us, label %.split.us.split.split

.split.us.split.split.us:                         ; preds = %.split.us.split
  %.sroa.0.0.us.us2631 = getelementptr inbounds i8, ptr %0, i64 -8
  %27 = load i64, ptr %.sroa.0.0.us.us2631, align 8, !tbaa !77
  %28 = icmp ult i64 %3, %27
  br i1 %28, label %.thread1.i.i.us.us24, label %.split13.us

.thread1.i.i.us.us24:                             ; preds = %.split.us.split.split.us, %.thread1.i.i.us.us24
  %29 = phi i64 [ %30, %.thread1.i.i.us.us24 ], [ %27, %.split.us.split.split.us ]
  %.sroa.0.0.us.us2633 = phi ptr [ %.sroa.0.0.us.us26, %.thread1.i.i.us.us24 ], [ %.sroa.0.0.us.us2631, %.split.us.split.split.us ]
  %.sroa.06.0.us.us2532 = phi ptr [ %.sroa.0.0.us.us2633, %.thread1.i.i.us.us24 ], [ %0, %.split.us.split.split.us ]
  store i64 %29, ptr %.sroa.06.0.us.us2532, align 8, !tbaa !77
  %.sroa.0.0.us.us26 = getelementptr inbounds i8, ptr %.sroa.0.0.us.us2633, i64 -8
  %30 = load i64, ptr %.sroa.0.0.us.us26, align 8, !tbaa !77
  %31 = icmp ult i64 %3, %30
  br i1 %31, label %.thread1.i.i.us.us24, label %.split13.us, !llvm.loop !146

.split.us.split.split:                            ; preds = %.split.us.split
  %32 = getelementptr inbounds nuw i32, ptr %26, i64 %3
  %33 = load i32, ptr %32, align 4, !tbaa !78
  %.sroa.0.0.us28 = getelementptr inbounds i8, ptr %0, i64 -8
  %34 = load i64, ptr %.sroa.0.0.us28, align 8, !tbaa !77
  %35 = getelementptr inbounds nuw i32, ptr %26, i64 %34
  %36 = load i32, ptr %35, align 4, !tbaa !78
  %37 = icmp slt i32 %33, %36
  br i1 %37, label %.thread1.i.i.us, label %.split13.us

.thread1.i.i.us:                                  ; preds = %.split.us.split.split, %.thread1.i.i.us
  %38 = phi i64 [ %39, %.thread1.i.i.us ], [ %34, %.split.us.split.split ]
  %.sroa.0.0.us30 = phi ptr [ %.sroa.0.0.us, %.thread1.i.i.us ], [ %.sroa.0.0.us28, %.split.us.split.split ]
  %.sroa.06.0.us29 = phi ptr [ %.sroa.0.0.us30, %.thread1.i.i.us ], [ %0, %.split.us.split.split ]
  store i64 %38, ptr %.sroa.06.0.us29, align 8, !tbaa !77
  %.sroa.0.0.us = getelementptr inbounds i8, ptr %.sroa.0.0.us30, i64 -8
  %39 = load i64, ptr %.sroa.0.0.us, align 8, !tbaa !77
  %40 = getelementptr inbounds nuw i32, ptr %26, i64 %39
  %41 = load i32, ptr %40, align 4, !tbaa !78
  %42 = icmp slt i32 %33, %41
  br i1 %42, label %.thread1.i.i.us, label %.split13.us, !llvm.loop !146

.split:                                           ; preds = %2
  %43 = getelementptr inbounds nuw i32, ptr %5, i64 %3
  %44 = load i32, ptr %43, align 4, !tbaa !78
  %.fr = freeze i32 %44
  %.not396.i.i = icmp sgt i32 %.fr, 0
  %wide.trip.count.i.i = zext nneg i32 %.fr to i64
  br i1 %.not396.i.i, label %.split.split, label %.split.split.us

.split.split.us:                                  ; preds = %.split, %60
  %.sroa.06.0.us14 = phi ptr [ %.sroa.0.0.us15, %60 ], [ %0, %.split ]
  %.sroa.0.0.us15 = getelementptr inbounds i8, ptr %.sroa.06.0.us14, i64 -8
  %45 = load i64, ptr %.sroa.0.0.us15, align 8, !tbaa !77
  %46 = getelementptr inbounds nuw i32, ptr %5, i64 %45
  %47 = load i32, ptr %46, align 4, !tbaa !78
  %48 = icmp eq i32 %.fr, %47
  br i1 %48, label %.thread1.i.i.us16, label %49

49:                                               ; preds = %.split.split.us
  %50 = icmp sgt i32 %.fr, %47
  br i1 %50, label %60, label %.split13.us

.thread1.i.i.us16:                                ; preds = %.split.split.us
  %51 = load ptr, ptr %7, align 8, !tbaa !83
  %.not40.i.i.us20 = icmp eq ptr %51, null
  br i1 %.not40.i.i.us20, label %58, label %52

52:                                               ; preds = %.thread1.i.i.us16
  %53 = getelementptr inbounds nuw i32, ptr %51, i64 %3
  %54 = load i32, ptr %53, align 4, !tbaa !78
  %55 = getelementptr inbounds nuw i32, ptr %51, i64 %45
  %56 = load i32, ptr %55, align 4, !tbaa !78
  %57 = icmp slt i32 %54, %56
  br i1 %57, label %60, label %.split13.us

58:                                               ; preds = %.thread1.i.i.us16
  %59 = icmp ult i64 %3, %45
  br i1 %59, label %60, label %.split13.us

60:                                               ; preds = %58, %52, %49
  store i64 %45, ptr %.sroa.06.0.us14, align 8, !tbaa !77
  br label %.split.split.us, !llvm.loop !146

.split.split:                                     ; preds = %.split, %88
  %.sroa.06.0 = phi ptr [ %.sroa.0.0, %88 ], [ %0, %.split ]
  %.sroa.0.0 = getelementptr inbounds i8, ptr %.sroa.06.0, i64 -8
  %61 = load i64, ptr %.sroa.0.0, align 8, !tbaa !77
  %62 = getelementptr inbounds nuw i32, ptr %5, i64 %61
  %63 = load i32, ptr %62, align 4, !tbaa !78
  %64 = icmp eq i32 %.fr, %63
  br i1 %64, label %.thread1.i.i, label %85

.thread1.i.i:                                     ; preds = %.split.split
  %65 = load ptr, ptr %6, align 8, !tbaa !89
  %.not37.i.i.not = icmp eq ptr %65, null
  br i1 %.not37.i.i.not, label %.loopexit.i.i, label %.lr.ph.i.i

.lr.ph.i.i:                                       ; preds = %.thread1.i.i
  %66 = getelementptr inbounds nuw ptr, ptr %65, i64 %3
  %67 = load ptr, ptr %66, align 8, !tbaa !87
  %68 = getelementptr inbounds nuw ptr, ptr %65, i64 %61
  %69 = load ptr, ptr %68, align 8, !tbaa !87
  br label %71

70:                                               ; preds = %71
  %indvars.iv.next.i.i = add nuw nsw i64 %indvars.iv.i.i, 1
  %exitcond.not.i.i = icmp eq i64 %indvars.iv.next.i.i, %wide.trip.count.i.i
  br i1 %exitcond.not.i.i, label %.loopexit.i.i, label %71, !llvm.loop !104

71:                                               ; preds = %70, %.lr.ph.i.i
  %indvars.iv.i.i = phi i64 [ 0, %.lr.ph.i.i ], [ %indvars.iv.next.i.i, %70 ]
  %72 = getelementptr inbounds nuw i32, ptr %67, i64 %indvars.iv.i.i
  %73 = load i32, ptr %72, align 4, !tbaa !78
  %74 = getelementptr inbounds nuw i32, ptr %69, i64 %indvars.iv.i.i
  %75 = load i32, ptr %74, align 4, !tbaa !78
  %.not38.i.i = icmp eq i32 %73, %75
  br i1 %.not38.i.i, label %70, label %"_ZN9__gnu_cxx5__ops14_Val_comp_iterIZN12llama_sbatch10from_batchERK11llama_batchmbbE3$_0EclImNS_17__normal_iteratorIPmSt6vectorImSaImEEEEEEbRT_T0_.exit"

.loopexit.i.i:                                    ; preds = %70, %.thread1.i.i
  %76 = load ptr, ptr %7, align 8, !tbaa !83
  %.not40.i.i = icmp eq ptr %76, null
  br i1 %.not40.i.i, label %83, label %77

77:                                               ; preds = %.loopexit.i.i
  %78 = getelementptr inbounds nuw i32, ptr %76, i64 %3
  %79 = load i32, ptr %78, align 4, !tbaa !78
  %80 = getelementptr inbounds nuw i32, ptr %76, i64 %61
  %81 = load i32, ptr %80, align 4, !tbaa !78
  %82 = icmp slt i32 %79, %81
  br i1 %82, label %88, label %.split13.us

83:                                               ; preds = %.loopexit.i.i
  %84 = icmp ult i64 %3, %61
  br i1 %84, label %88, label %.split13.us

85:                                               ; preds = %.split.split
  %86 = icmp sgt i32 %.fr, %63
  br i1 %86, label %88, label %.split13.us

"_ZN9__gnu_cxx5__ops14_Val_comp_iterIZN12llama_sbatch10from_batchERK11llama_batchmbbE3$_0EclImNS_17__normal_iteratorIPmSt6vectorImSaImEEEEEEbRT_T0_.exit": ; preds = %71
  %87 = icmp slt i32 %73, %75
  br i1 %87, label %88, label %.split13.us

88:                                               ; preds = %85, %83, %77, %"_ZN9__gnu_cxx5__ops14_Val_comp_iterIZN12llama_sbatch10from_batchERK11llama_batchmbbE3$_0EclImNS_17__normal_iteratorIPmSt6vectorImSaImEEEEEEbRT_T0_.exit"
  store i64 %61, ptr %.sroa.06.0, align 8, !tbaa !77
  br label %.split.split, !llvm.loop !146

.split13.us:                                      ; preds = %58, %52, %49, %85, %83, %77, %"_ZN9__gnu_cxx5__ops14_Val_comp_iterIZN12llama_sbatch10from_batchERK11llama_batchmbbE3$_0EclImNS_17__normal_iteratorIPmSt6vectorImSaImEEEEEEbRT_T0_.exit", %23, %17, %"_ZN9__gnu_cxx5__ops14_Val_comp_iterIZN12llama_sbatch10from_batchERK11llama_batchmbbE3$_0EclImNS_17__normal_iteratorIPmSt6vectorImSaImEEEEEEbRT_T0_.exit.us.us", %.thread1.i.i.us, %.thread1.i.i.us.us24, %.split.us.split.split, %.split.us.split.split.us
  %.us-phi = phi ptr [ %0, %.split.us.split.split.us ], [ %0, %.split.us.split.split ], [ %.sroa.0.0.us.us2633, %.thread1.i.i.us.us24 ], [ %.sroa.0.0.us30, %.thread1.i.i.us ], [ %.sroa.06.0.us.us, %"_ZN9__gnu_cxx5__ops14_Val_comp_iterIZN12llama_sbatch10from_batchERK11llama_batchmbbE3$_0EclImNS_17__normal_iteratorIPmSt6vectorImSaImEEEEEEbRT_T0_.exit.us.us" ], [ %.sroa.06.0.us.us, %17 ], [ %.sroa.06.0.us.us, %23 ], [ %.sroa.06.0, %"_ZN9__gnu_cxx5__ops14_Val_comp_iterIZN12llama_sbatch10from_batchERK11llama_batchmbbE3$_0EclImNS_17__normal_iteratorIPmSt6vectorImSaImEEEEEEbRT_T0_.exit" ], [ %.sroa.06.0, %77 ], [ %.sroa.06.0, %83 ], [ %.sroa.06.0, %85 ], [ %.sroa.06.0.us14, %49 ], [ %.sroa.06.0.us14, %52 ], [ %.sroa.06.0.us14, %58 ]
  store i64 %3, ptr %.us-phi, align 8, !tbaa !77
  ret void
}